target datalayout = "e-m:e-p270:32:32-p271:32:32-p272:64:64-i64:64-i128:128-f80:128-n8:16:32:64-S128"
target triple = "x86_64-pc-linux-gnu"

%struct.RBasic = type { i64, i64 }
%struct.RString = type { %struct.RBasic, i64, %union.anon.15 }
%union.anon.15 = type { %struct.anon.16 }
%struct.anon.16 = type { ptr, %union.anon.17 }
%union.anon.17 = type { i64 }

@rb_stdin = external global i64, align 8

; Function Attrs: inlinehint nounwind sspstrong willreturn memory(none) uwtable
define internal i64 @RB_INT2FIX(i64 noundef %0) #13 {
  %2 = alloca i64, align 8
  %3 = alloca i64, align 8
  %4 = alloca i64, align 8
  %5 = alloca i64, align 8
  %6 = alloca i64, align 8
  %7 = alloca i64, align 8
  store i64 %0, ptr %2, align 8, !tbaa !42
  call void @llvm.lifetime.start.p0(i64 8, ptr %3) #24
  %8 = load i64, ptr %2, align 8, !tbaa !42
  store i64 %8, ptr %3, align 8, !tbaa !42
  call void @llvm.lifetime.start.p0(i64 8, ptr %4) #24
  %9 = load i64, ptr %3, align 8, !tbaa !42
  %10 = shl i64 %9, 1
  %11 = add i64 %10, 1
  store i64 %11, ptr %4, align 8, !tbaa !42
  call void @llvm.lifetime.start.p0(i64 8, ptr %5) #24
  %12 = load i64, ptr %4, align 8, !tbaa !42
  store i64 %12, ptr %5, align 8, !tbaa !42
  call void @llvm.lifetime.start.p0(i64 8, ptr %6) #24
  %13 = load i64, ptr %5, align 8, !tbaa !42
  store i64 %13, ptr %6, align 8, !tbaa !42
  call void @llvm.lifetime.start.p0(i64 8, ptr %7) #24
  %14 = load i64, ptr %6, align 8, !tbaa !42
  store i64 %14, ptr %7, align 8, !tbaa !42
  %15 = load i64, ptr %7, align 8, !tbaa !42
  call void @llvm.lifetime.end.p0(i64 8, ptr %7) #24
  call void @llvm.lifetime.end.p0(i64 8, ptr %6) #24
  call void @llvm.lifetime.end.p0(i64 8, ptr %5) #24
  call void @llvm.lifetime.end.p0(i64 8, ptr %4) #24
  call void @llvm.lifetime.end.p0(i64 8, ptr %3) #24
  ret i64 %15
}

; Function Attrs: inlinehint nounwind sspstrong uwtable
define internal i64 @rb_int2num_inline(i32 noundef %0) #5 {
  %2 = alloca i64, align 8
  %3 = alloca i32, align 4
  store i32 %0, ptr %3, align 4, !tbaa !12
  %4 = load i32, ptr %3, align 4, !tbaa !12
  %5 = sext i32 %4 to i64
  %6 = icmp slt i64 %5, 4611686018427387904
  br i1 %6, label %7, label %15

7:                                                ; preds = %1
  %8 = load i32, ptr %3, align 4, !tbaa !12
  %9 = sext i32 %8 to i64
  %10 = icmp sge i64 %9, -4611686018427387904
  br i1 %10, label %11, label %15

11:                                               ; preds = %7
  %12 = load i32, ptr %3, align 4, !tbaa !12
  %13 = sext i32 %12 to i64
  %14 = call i64 @RB_INT2FIX(i64 noundef %13) #27
  store i64 %14, ptr %2, align 8
  br label %19

15:                                               ; preds = %7, %1
  %16 = load i32, ptr %3, align 4, !tbaa !12
  %17 = sext i32 %16 to i64
  %18 = call i64 @rb_int2big(i64 noundef %17)
  store i64 %18, ptr %2, align 8
  br label %19

19:                                               ; preds = %15, %11
  %20 = load i64, ptr %2, align 8
  ret i64 %20
}

; Function Attrs: inlinehint nounwind sspstrong uwtable
define internal i32 @disable_nonblock(i32 noundef %0) #5 {
  %2 = alloca i32, align 4
  %3 = alloca i32, align 4
  %4 = alloca i32, align 4
  %5 = alloca i32, align 4
  store i32 %0, ptr %3, align 4, !tbaa !12
  %6 = load i32, ptr %3, align 4, !tbaa !12
  %7 = call i32 (i32, i32, ...) @fcntl(i32 noundef %6, i32 noundef 4, i32 noundef 0)
  %8 = icmp slt i32 %7, 0
  br i1 %8, label %9, label %20

9:                                                ; preds = %1
  call void @llvm.lifetime.start.p0(i64 4, ptr %4) #24
  %10 = call ptr @rb_errno_ptr()
  %11 = load i32, ptr %10, align 4, !tbaa !12
  store i32 %11, ptr %4, align 4, !tbaa !12
  %12 = load i32, ptr %4, align 4, !tbaa !12
  %13 = icmp ne i32 %12, 0
  call void @llvm.assume(i1 %13)
  %14 = load i32, ptr %4, align 4, !tbaa !12
  %15 = icmp eq i32 %14, 95
  br i1 %15, label %16, label %17

16:                                               ; preds = %9
  store i32 0, ptr %2, align 4
  store i32 1, ptr %5, align 4
  br label %19

17:                                               ; preds = %9
  %18 = load i32, ptr %4, align 4, !tbaa !12
  store i32 %18, ptr %2, align 4
  store i32 1, ptr %5, align 4
  br label %19

19:                                               ; preds = %17, %16
  call void @llvm.lifetime.end.p0(i64 4, ptr %4) #24
  br label %21

20:                                               ; preds = %1
  store i32 0, ptr %2, align 4
  br label %21

21:                                               ; preds = %20, %19
  %22 = load i32, ptr %2, align 4
  ret i32 %22
}

; Function Attrs: inlinehint nounwind sspstrong willreturn memory(read) uwtable
define internal i64 @RSTRING_LEN(i64 noundef %0) #7 {
  %2 = alloca i64, align 8
  store i64 %0, ptr %2, align 8, !tbaa !42
  %3 = load i64, ptr %2, align 8, !tbaa !42
  %4 = inttoptr i64 %3 to ptr
  %5 = getelementptr inbounds nuw %struct.RString, ptr %4, i32 0, i32 1
  %6 = load i64, ptr %5, align 8, !tbaa !142
  ret i64 %6
}

; Function Attrs: nounwind sspstrong uwtable
define internal i64 @open_load_file(i64 noundef %0, ptr noundef %1) #0 {
  %3 = alloca i64, align 8
  %4 = alloca ptr, align 8
  %5 = alloca ptr, align 8
  %6 = alloca i64, align 8
  %7 = alloca i64, align 8
  %8 = alloca i32, align 4
  %9 = alloca i32, align 4
  %10 = alloca i32, align 4
  %11 = alloca i32, align 4
  store i64 %0, ptr %3, align 8, !tbaa !42
  store ptr %1, ptr %4, align 8, !tbaa !49
  call void @llvm.lifetime.start.p0(i64 8, ptr %5) #24
  %12 = load i64, ptr %3, align 8, !tbaa !42
  %13 = call i64 @rb_str_encode_ospath(i64 noundef %12)
  store i64 %13, ptr %3, align 8, !tbaa !42
  %14 = call ptr @rb_string_value_cstr(ptr noundef %3)
  store ptr %14, ptr %5, align 8, !tbaa !7
  call void @llvm.lifetime.start.p0(i64 8, ptr %6) #24
  %15 = load i64, ptr %3, align 8, !tbaa !42
  %16 = call i64 @RSTRING_LEN(i64 noundef %15) #25
  store i64 %16, ptr %6, align 8, !tbaa !42
  call void @llvm.lifetime.start.p0(i64 8, ptr %7) #24
  call void @llvm.lifetime.start.p0(i64 4, ptr %8) #24
  %17 = load i64, ptr %6, align 8, !tbaa !42
  %18 = icmp eq i64 %17, 1
  br i1 %18, label %19, label %27

19:                                               ; preds = %2
  %20 = load ptr, ptr %5, align 8, !tbaa !7
  %21 = getelementptr i8, ptr %20, i64 0
  %22 = load i8, ptr %21, align 1, !tbaa !14
  %23 = sext i8 %22 to i32
  %24 = icmp eq i32 %23, 45
  br i1 %24, label %25, label %27

25:                                               ; preds = %19
  %26 = load i64, ptr @rb_stdin, align 8, !tbaa !42
  store i64 %26, ptr %7, align 8, !tbaa !42
  br label %89

27:                                               ; preds = %19, %2
  call void @llvm.lifetime.start.p0(i64 4, ptr %9) #24
  call void @llvm.lifetime.start.p0(i64 4, ptr %10) #24
  store i32 2048, ptr %10, align 4, !tbaa !12
  call void @llvm.lifetime.start.p0(i64 4, ptr %11) #24
  store i32 2048, ptr %11, align 4, !tbaa !12
  %28 = load ptr, ptr %5, align 8, !tbaa !7
  %29 = load i32, ptr %11, align 4, !tbaa !12
  %30 = call i32 @rb_cloexec_open(ptr noundef %28, i32 noundef %29, i32 noundef 0)
  store i32 %30, ptr %9, align 4, !tbaa !12
  %31 = icmp slt i32 %30, 0
  br i1 %31, label %32, label %53

32:                                               ; preds = %27
  %33 = call ptr @rb_errno_ptr()
  %34 = load i32, ptr %33, align 4, !tbaa !12
  store i32 %34, ptr %8, align 4, !tbaa !12
  %35 = load i32, ptr %8, align 4, !tbaa !12
  %36 = call i32 @rb_gc_for_fd(i32 noundef %35)
  %37 = icmp ne i32 %36, 0
  br i1 %37, label %42, label %38

38:                                               ; preds = %32
  %39 = load i64, ptr %3, align 8, !tbaa !42
  %40 = load i32, ptr %8, align 4, !tbaa !12
  %41 = call ptr @strerror(i32 noundef %40) #24
  call void @rb_load_fail(i64 noundef %39, ptr noundef %41) #26
  unreachable

42:                                               ; preds = %32
  %43 = load ptr, ptr %5, align 8, !tbaa !7
  %44 = load i32, ptr %11, align 4, !tbaa !12
  %45 = call i32 @rb_cloexec_open(ptr noundef %43, i32 noundef %44, i32 noundef 0)
  store i32 %45, ptr %9, align 4, !tbaa !12
  %46 = icmp slt i32 %45, 0
  br i1 %46, label %47, label %52

47:                                               ; preds = %42
  %48 = load i64, ptr %3, align 8, !tbaa !42
  %49 = call ptr @rb_errno_ptr()
  %50 = load i32, ptr %49, align 4, !tbaa !12
  %51 = call ptr @strerror(i32 noundef %50) #24
  call void @rb_load_fail(i64 noundef %48, ptr noundef %51) #26
  unreachable

52:                                               ; preds = %42
  br label %53

53:                                               ; preds = %52, %27
  %54 = load i32, ptr %9, align 4, !tbaa !12
  call void @rb_update_max_fd(i32 noundef %54)
  %55 = load i32, ptr %9, align 4, !tbaa !12
  %56 = call i32 @disable_nonblock(i32 noundef %55)
  store i32 %56, ptr %8, align 4, !tbaa !12
  %57 = icmp ne i32 %56, 0
  br i1 %57, label %58, label %64

58:                                               ; preds = %53
  %59 = load i32, ptr %9, align 4, !tbaa !12
  %60 = call i32 @close(i32 noundef %59)
  %61 = load i64, ptr %3, align 8, !tbaa !42
  %62 = load i32, ptr %8, align 4, !tbaa !12
  %63 = call ptr @strerror(i32 noundef %62) #24
  call void @rb_load_fail(i64 noundef %61, ptr noundef %63) #26
  unreachable

64:                                               ; preds = %53
  %65 = load i32, ptr %9, align 4, !tbaa !12
  %66 = call i32 @ruby_is_fd_loadable(i32 noundef %65)
  store i32 %66, ptr %8, align 4, !tbaa !12
  %67 = load i32, ptr %8, align 4, !tbaa !12
  %68 = icmp ne i32 %67, 0
  br i1 %68, label %77, label %69

69:                                               ; preds = %64
  %70 = call ptr @rb_errno_ptr()
  %71 = load i32, ptr %70, align 4, !tbaa !12
  store i32 %71, ptr %8, align 4, !tbaa !12
  %72 = load i32, ptr %9, align 4, !tbaa !12
  %73 = call i32 @close(i32 noundef %72)
  %74 = load i64, ptr %3, align 8, !tbaa !42
  %75 = load i32, ptr %8, align 4, !tbaa !12
  %76 = call ptr @strerror(i32 noundef %75) #24
  call void @rb_load_fail(i64 noundef %74, ptr noundef %76) #26
  unreachable

77:                                               ; preds = %64
  %78 = load i32, ptr %9, align 4, !tbaa !12
  %79 = load i32, ptr %11, align 4, !tbaa !12
  %80 = load ptr, ptr %5, align 8, !tbaa !7
  %81 = call i64 @rb_io_fdopen(i32 noundef %78, i32 noundef %79, ptr noundef %80)
  store i64 %81, ptr %7, align 8, !tbaa !42
  %82 = load i32, ptr %8, align 4, !tbaa !12
  %83 = icmp slt i32 %82, 0
  br i1 %83, label %84, label %88

84:                                               ; preds = %77
  %85 = load i64, ptr %7, align 8, !tbaa !42
  %86 = call i64 @rb_int2num_inline(i32 noundef 1)
  %87 = call i64 @rb_io_wait(i64 noundef %85, i64 noundef %86, i64 noundef 4)
  br label %88

88:                                               ; preds = %84, %77
  call void @llvm.lifetime.end.p0(i64 4, ptr %11) #24
  call void @llvm.lifetime.end.p0(i64 4, ptr %10) #24
  call void @llvm.lifetime.end.p0(i64 4, ptr %9) #24
  br label %89

89:                                               ; preds = %88, %25
  %90 = load i64, ptr %7, align 8, !tbaa !42
  call void @llvm.lifetime.end.p0(i64 4, ptr %8) #24
  call void @llvm.lifetime.end.p0(i64 8, ptr %7) #24
  call void @llvm.lifetime.end.p0(i64 8, ptr %6) #24
  call void @llvm.lifetime.end.p0(i64 8, ptr %5) #24
  ret i64 %90
}