; Function Attrs: nounwind sspstrong uwtable
define internal fastcc i64 @open_load_file(i64 noundef %0) unnamed_addr #0 {
  %2 = alloca i64, align 8
  %3 = tail call i64 @rb_str_encode_ospath(i64 noundef %0) #25
  store i64 %3, ptr %2, align 8, !tbaa !47
  %4 = call ptr @rb_string_value_cstr(ptr noundef nonnull %2) #25
  %5 = load i64, ptr %2, align 8, !tbaa !47
  %6 = inttoptr i64 %5 to ptr
  %7 = getelementptr inbounds nuw i8, ptr %6, i64 16
  %8 = load i64, ptr %7, align 8, !tbaa !68
  %9 = icmp eq i64 %8, 1
  br i1 %9, label %10, label %15

10:                                               ; preds = %1
  %11 = load i8, ptr %4, align 1, !tbaa !7
  %12 = icmp eq i8 %11, 45
  br i1 %12, label %13, label %15

13:                                               ; preds = %10
  %14 = load i64, ptr @rb_stdin, align 8, !tbaa !47
  br label %56

15:                                               ; preds = %10, %1
  %16 = call i32 @rb_cloexec_open(ptr noundef %4, i32 noundef 2048, i32 noundef 0) #25
  %17 = icmp slt i32 %16, 0
  br i1 %17, label %18, label %33

18:                                               ; preds = %15
  %19 = call ptr @rb_errno_ptr() #25
  %20 = load i32, ptr %19, align 4, !tbaa !70
  %21 = call i32 @rb_gc_for_fd(i32 noundef %20) #25
  %.not = icmp eq i32 %21, 0
  br i1 %.not, label %22, label %25

22:                                               ; preds = %18
  %23 = load i64, ptr %2, align 8, !tbaa !47
  %24 = call ptr @strerror(i32 noundef %20) #25
  call void @rb_load_fail(i64 noundef %23, ptr noundef %24) #26
  unreachable

25:                                               ; preds = %18
  %26 = call i32 @rb_cloexec_open(ptr noundef %4, i32 noundef 2048, i32 noundef 0) #25
  %27 = icmp slt i32 %26, 0
  br i1 %27, label %28, label %33

28:                                               ; preds = %25
  %29 = load i64, ptr %2, align 8, !tbaa !47
  %30 = call ptr @rb_errno_ptr() #25
  %31 = load i32, ptr %30, align 4, !tbaa !70
  %32 = call ptr @strerror(i32 noundef %31) #25
  call void @rb_load_fail(i64 noundef %29, ptr noundef %32) #26
  unreachable

33:                                               ; preds = %25, %15
  %.021 = phi i32 [ %26, %25 ], [ %16, %15 ]
  call void @rb_update_max_fd(i32 noundef %.021) #25
  %34 = call i32 (i32, i32, ...) @fcntl(i32 noundef range(i32 0, -2147483648) %.021, i32 noundef 4, i32 noundef 0) #25
  %35 = icmp slt i32 %34, 0
  br i1 %35, label %36, label %select.unfold

36:                                               ; preds = %33
  %37 = call ptr @rb_errno_ptr() #25
  %38 = load i32, ptr %37, align 4, !tbaa !70
  %39 = icmp ne i32 %38, 0
  call void @llvm.assume(i1 %39)
  %40 = icmp eq i32 %38, 95
  br i1 %40, label %select.unfold, label %disable_nonblock.exit

disable_nonblock.exit:                            ; preds = %36
  %41 = call i32 @close(i32 noundef %.021) #25
  %42 = load i64, ptr %2, align 8, !tbaa !47
  %43 = call ptr @strerror(i32 noundef %38) #25
  call void @rb_load_fail(i64 noundef %42, ptr noundef %43) #26
  unreachable

select.unfold:                                    ; preds = %36, %33
  %44 = call i32 @ruby_is_fd_loadable(i32 noundef %.021) #25
  %.not27 = icmp eq i32 %44, 0
  br i1 %.not27, label %45, label %51

45:                                               ; preds = %select.unfold
  %46 = call ptr @rb_errno_ptr() #25
  %47 = load i32, ptr %46, align 4, !tbaa !70
  %48 = call i32 @close(i32 noundef %.021) #25
  %49 = load i64, ptr %2, align 8, !tbaa !47
  %50 = call ptr @strerror(i32 noundef %47) #25
  call void @rb_load_fail(i64 noundef %49, ptr noundef %50) #26
  unreachable

51:                                               ; preds = %select.unfold
  %52 = call i64 @rb_io_fdopen(i32 noundef %.021, i32 noundef 2048, ptr noundef %4) #25
  %53 = icmp slt i32 %44, 0
  br i1 %53, label %54, label %56

54:                                               ; preds = %51
  %55 = call i64 @rb_io_wait(i64 noundef %52, i64 noundef 3, i64 noundef 4) #25
  br label %56

56:                                               ; preds = %51, %54, %13
  %.0 = phi i64 [ %14, %13 ], [ %52, %54 ], [ %52, %51 ]
  ret i64 %.0
}